	.section	__TEXT,__text,regular,pure_instructions
	.build_version macos, 10, 15, 4	sdk_version 10, 15, 4
	.intel_syntax noprefix
	.file	1 "/Users/dj_kim/git/CppStudy" "8.\354\234\240\354\235\230\354\202\254\355\225\255.cpp"
	.file	2 "/Library/Developer/CommandLineTools/usr/bin/../include/c++/v1" "ios"
	.file	3 "/Library/Developer/CommandLineTools/usr/lib/clang/11.0.3/include" "stddef.h"
	.file	4 "/Library/Developer/CommandLineTools/SDKs/MacOSX.sdk/usr/include/i386" "_types.h"
	.file	5 "/Library/Developer/CommandLineTools/SDKs/MacOSX.sdk/usr/include/sys/_types" "_size_t.h"
	.file	6 "/Library/Developer/CommandLineTools/usr/bin/../include/c++/v1" "__locale"
	.file	7 "/Library/Developer/CommandLineTools/usr/bin/../include/c++/v1" "string"
	.file	8 "/Library/Developer/CommandLineTools/usr/bin/../include/c++/v1" "memory"
	.file	9 "/Library/Developer/CommandLineTools/usr/bin/../include/c++/v1" "type_traits"
	.file	10 "/Library/Developer/CommandLineTools/usr/bin/../include/c++/v1" "string_view"
	.file	11 "/Library/Developer/CommandLineTools/usr/bin/../include/c++/v1" "__string"
	.file	12 "/Library/Developer/CommandLineTools/usr/bin/../include/c++/v1" "iosfwd"
	.file	13 "/Library/Developer/CommandLineTools/usr/bin/../include/c++/v1" "mutex"
	.file	14 "/Library/Developer/CommandLineTools/SDKs/MacOSX.sdk/usr/include/sys/_types" "_int32_t.h"
	.file	15 "/Library/Developer/CommandLineTools/usr/bin/../include/c++/v1" "cstddef"
	.file	16 "/Library/Developer/CommandLineTools/usr/bin/../include/c++/v1" "cstring"
	.file	17 "/Library/Developer/CommandLineTools/SDKs/MacOSX.sdk/usr/include" "string.h"
	.file	18 "/Library/Developer/CommandLineTools/usr/bin/../include/c++/v1" "string.h"
	.file	19 "/Library/Developer/CommandLineTools/SDKs/MacOSX.sdk/usr/include/sys/_types" "_int8_t.h"
	.file	20 "/Library/Developer/CommandLineTools/usr/bin/../include/c++/v1" "cstdint"
	.file	21 "/Library/Developer/CommandLineTools/SDKs/MacOSX.sdk/usr/include/sys/_types" "_int16_t.h"
	.file	22 "/Library/Developer/CommandLineTools/SDKs/MacOSX.sdk/usr/include/sys/_types" "_int64_t.h"
	.file	23 "/Library/Developer/CommandLineTools/SDKs/MacOSX.sdk/usr/include/_types" "_uint8_t.h"
	.file	24 "/Library/Developer/CommandLineTools/SDKs/MacOSX.sdk/usr/include/_types" "_uint16_t.h"
	.file	25 "/Library/Developer/CommandLineTools/SDKs/MacOSX.sdk/usr/include/_types" "_uint32_t.h"
	.file	26 "/Library/Developer/CommandLineTools/SDKs/MacOSX.sdk/usr/include/_types" "_uint64_t.h"
	.file	27 "/Library/Developer/CommandLineTools/SDKs/MacOSX.sdk/usr/include" "stdint.h"
	.file	28 "/Library/Developer/CommandLineTools/SDKs/MacOSX.sdk/usr/include/sys/_types" "_intptr_t.h"
	.file	29 "/Library/Developer/CommandLineTools/SDKs/MacOSX.sdk/usr/include/sys/_types" "_uintptr_t.h"
	.file	30 "/Library/Developer/CommandLineTools/SDKs/MacOSX.sdk/usr/include/_types" "_intmax_t.h"
	.file	31 "/Library/Developer/CommandLineTools/SDKs/MacOSX.sdk/usr/include/_types" "_uintmax_t.h"
	.file	32 "/Library/Developer/CommandLineTools/usr/bin/../include/c++/v1" "cstdlib"
	.file	33 "/Library/Developer/CommandLineTools/SDKs/MacOSX.sdk/usr/include" "stdlib.h"
	.file	34 "/Library/Developer/CommandLineTools/SDKs/MacOSX.sdk/usr/include/malloc" "_malloc.h"
	.file	35 "/Library/Developer/CommandLineTools/usr/bin/../include/c++/v1" "stdlib.h"
	.file	36 "/Library/Developer/CommandLineTools/SDKs/MacOSX.sdk/usr/include" "_stdio.h"
	.file	37 "/Library/Developer/CommandLineTools/SDKs/MacOSX.sdk/usr/include/sys" "_types.h"
	.file	38 "/Library/Developer/CommandLineTools/usr/bin/../include/c++/v1" "cstdio"
	.file	39 "/Library/Developer/CommandLineTools/SDKs/MacOSX.sdk/usr/include" "stdio.h"
	.file	40 "/Library/Developer/CommandLineTools/SDKs/MacOSX.sdk/usr/include" "_ctype.h"
	.file	41 "/Library/Developer/CommandLineTools/usr/bin/../include/c++/v1" "cctype"
	.file	42 "/Library/Developer/CommandLineTools/SDKs/MacOSX.sdk/usr/include/sys/_types" "_wint_t.h"
	.file	43 "/Library/Developer/CommandLineTools/usr/bin/../include/c++/v1" "cwctype"
	.file	44 "/Library/Developer/CommandLineTools/SDKs/MacOSX.sdk/usr/include" "_types.h"
	.file	45 "/Library/Developer/CommandLineTools/SDKs/MacOSX.sdk/usr/include/_types" "_wctrans_t.h"
	.file	46 "/Library/Developer/CommandLineTools/SDKs/MacOSX.sdk/usr/include/_types" "_wctype_t.h"
	.file	47 "/Library/Developer/CommandLineTools/SDKs/MacOSX.sdk/usr/include" "_wctype.h"
	.file	48 "/Library/Developer/CommandLineTools/SDKs/MacOSX.sdk/usr/include" "wctype.h"
	.file	49 "/Library/Developer/CommandLineTools/SDKs/MacOSX.sdk/usr/include/sys/_types" "_mbstate_t.h"
	.file	50 "/Library/Developer/CommandLineTools/usr/bin/../include/c++/v1" "cwchar"
	.file	51 "/Library/Developer/CommandLineTools/SDKs/MacOSX.sdk/usr/include" "time.h"
	.file	52 "/Library/Developer/CommandLineTools/SDKs/MacOSX.sdk/usr/include" "wchar.h"
	.file	53 "/Library/Developer/CommandLineTools/usr/bin/../include/c++/v1" "wchar.h"
	.file	54 "/Library/Developer/CommandLineTools/SDKs/MacOSX.sdk/usr/include/sys/_types" "_clock_t.h"
	.file	55 "/Library/Developer/CommandLineTools/usr/bin/../include/c++/v1" "ctime"
	.file	56 "/Library/Developer/CommandLineTools/SDKs/MacOSX.sdk/usr/include/sys/_types" "_time_t.h"
	.globl	_main                   ## -- Begin function main
	.p2align	4, 0x90
_main:                                  ## @main
Lfunc_begin0:
	.loc	1 22 0                  ## 8.유의사항.cpp:22:0
	.cfi_sections .debug_frame
	.cfi_startproc
## %bb.0:
	push	rbp
	.cfi_def_cfa_offset 16
	.cfi_offset rbp, -16
	mov	rbp, rsp
	.cfi_def_cfa_register rbp
	sub	rsp, 48
	mov	rdi, qword ptr [rip + __ZNSt3__14coutE@GOTPCREL]
	mov	dword ptr [rbp - 4], 0
Ltmp0:
	.loc	1 25 13 prologue_end    ## 8.유의사항.cpp:25:13
	mov	dword ptr [rbp - 8], 100
	.loc	1 26 17                 ## 8.유의사항.cpp:26:17
	mov	esi, dword ptr [rbp - 8]
	.loc	1 26 14 is_stmt 0       ## 8.유의사항.cpp:26:14
	call	__ZNSt3__113basic_ostreamIcNS_11char_traitsIcEEElsEi
	.loc	1 26 20                 ## 8.유의사항.cpp:26:20
	mov	rdi, rax
	lea	rsi, [rip + __ZNSt3__1L4endlIcNS_11char_traitsIcEEEERNS_13basic_ostreamIT_T0_EES7_]
	call	__ZNSt3__113basic_ostreamIcNS_11char_traitsIcEEElsEPFRS3_S4_E
Ltmp1:
	.loc	1 30 9 is_stmt 1        ## 8.유의사항.cpp:30:9
	mov	dword ptr [rbp - 12], 2000
	.loc	1 33 21                 ## 8.유의사항.cpp:33:21
	mov	ecx, dword ptr [rbp - 12]
	mov	qword ptr [rbp - 32], rax ## 8-byte Spill
	.loc	1 33 24 is_stmt 0       ## 8.유의사항.cpp:33:24
	mov	eax, ecx
	cdq
	mov	ecx, 2
	idiv	ecx
	.loc	1 33 29                 ## 8.유의사항.cpp:33:29
	cmp	edx, 0
	sete	r8b
	.loc	1 33 10                 ## 8.유의사항.cpp:33:10
	and	r8b, 1
	mov	byte ptr [rbp - 13], r8b
	.loc	1 34 29 is_stmt 1       ## 8.유의사항.cpp:34:29
	mov	edx, dword ptr [rbp - 12]
	.loc	1 34 32 is_stmt 0       ## 8.유의사항.cpp:34:32
	mov	eax, edx
	cdq
	idiv	ecx
	.loc	1 34 37                 ## 8.유의사항.cpp:34:37
	cmp	edx, 0
	.loc	1 34 43                 ## 8.유의사항.cpp:34:43
	mov	r8b, 1
	mov	byte ptr [rbp - 33], r8b ## 1-byte Spill
	je	LBB0_2
## %bb.1:
	.loc	1 34 48                 ## 8.유의사항.cpp:34:48
	mov	eax, dword ptr [rbp - 12]
	.loc	1 34 51                 ## 8.유의사항.cpp:34:51
	cdq
	mov	ecx, 3
	idiv	ecx
	.loc	1 34 56                 ## 8.유의사항.cpp:34:56
	cmp	edx, 0
	sete	sil
	mov	byte ptr [rbp - 33], sil ## 1-byte Spill
LBB0_2:
	.loc	1 0 56                  ## 8.유의사항.cpp:0:56
	mov	al, byte ptr [rbp - 33] ## 1-byte Reload
	.loc	1 34 10                 ## 8.유의사항.cpp:34:10
	and	al, 1
	mov	byte ptr [rbp - 14], al
	.loc	1 37 17 is_stmt 1       ## 8.유의사항.cpp:37:17
	mov	ecx, dword ptr [rbp - 12]
                                        ## kill: def $cx killed $cx killed $ecx
	.loc	1 37 11 is_stmt 0       ## 8.유의사항.cpp:37:11
	mov	word ptr [rbp - 16], cx
	.loc	1 38 17 is_stmt 1       ## 8.유의사항.cpp:38:17
	cvtsi2ss	xmm0, dword ptr [rbp - 12]
	.loc	1 38 11 is_stmt 0       ## 8.유의사항.cpp:38:11
	movss	dword ptr [rbp - 20], xmm0
	.loc	1 39 24 is_stmt 1       ## 8.유의사항.cpp:39:24
	mov	edx, dword ptr [rbp - 12]
	.loc	1 39 18 is_stmt 0       ## 8.유의사항.cpp:39:18
	mov	dword ptr [rbp - 24], edx
	.loc	1 40 1 is_stmt 1        ## 8.유의사항.cpp:40:1
	mov	eax, dword ptr [rbp - 4]
	add	rsp, 48
	pop	rbp
	ret
Ltmp2:
Lfunc_end0:
	.cfi_endproc
                                        ## -- End function
	.p2align	4, 0x90         ## -- Begin function _ZNSt3__113basic_ostreamIcNS_11char_traitsIcEEElsEPFRS3_S4_E
__ZNSt3__113basic_ostreamIcNS_11char_traitsIcEEElsEPFRS3_S4_E: ## @_ZNSt3__113basic_ostreamIcNS_11char_traitsIcEEElsEPFRS3_S4_E
Lfunc_begin1:
	.file	57 "/Library/Developer/CommandLineTools/usr/bin/../include/c++/v1" "ostream"
	.loc	57 195 0                ## /Library/Developer/CommandLineTools/usr/bin/../include/c++/v1/ostream:195:0
	.cfi_startproc
## %bb.0:
	push	rbp
	.cfi_def_cfa_offset 16
	.cfi_offset rbp, -16
	mov	rbp, rsp
	.cfi_def_cfa_register rbp
	sub	rsp, 16
	mov	qword ptr [rbp - 8], rdi
	mov	qword ptr [rbp - 16], rsi
	mov	rdi, qword ptr [rbp - 8]
Ltmp3:
	.loc	57 195 14 prologue_end  ## /Library/Developer/CommandLineTools/usr/bin/../include/c++/v1/ostream:195:14
	call	qword ptr [rbp - 16]
	.loc	57 195 7 is_stmt 0      ## /Library/Developer/CommandLineTools/usr/bin/../include/c++/v1/ostream:195:7
	add	rsp, 16
	pop	rbp
	ret
Ltmp4:
Lfunc_end1:
	.cfi_endproc
	.file	58 "/Library/Developer/CommandLineTools/usr/bin/../include/c++/v1" "streambuf"
                                        ## -- End function
	.p2align	4, 0x90         ## -- Begin function _ZNSt3__1L4endlIcNS_11char_traitsIcEEEERNS_13basic_ostreamIT_T0_EES7_
__ZNSt3__1L4endlIcNS_11char_traitsIcEEEERNS_13basic_ostreamIT_T0_EES7_: ## @_ZNSt3__1L4endlIcNS_11char_traitsIcEEEERNS_13basic_ostreamIT_T0_EES7_
Lfunc_begin2:
	.loc	57 1000 0 is_stmt 1     ## /Library/Developer/CommandLineTools/usr/bin/../include/c++/v1/ostream:1000:0
	.cfi_startproc
## %bb.0:
	push	rbp
	.cfi_def_cfa_offset 16
	.cfi_offset rbp, -16
	mov	rbp, rsp
	.cfi_def_cfa_register rbp
	sub	rsp, 32
	mov	qword ptr [rbp - 8], rdi
Ltmp5:
	.loc	57 1001 5 prologue_end  ## /Library/Developer/CommandLineTools/usr/bin/../include/c++/v1/ostream:1001:5
	mov	rdi, qword ptr [rbp - 8]
	.loc	57 1001 14 is_stmt 0    ## /Library/Developer/CommandLineTools/usr/bin/../include/c++/v1/ostream:1001:14
	mov	rax, qword ptr [rbp - 8]
	mov	rcx, qword ptr [rax]
	mov	rcx, qword ptr [rcx - 24]
	add	rax, rcx
	mov	qword ptr [rbp - 16], rdi ## 8-byte Spill
	.loc	57 1001 19              ## /Library/Developer/CommandLineTools/usr/bin/../include/c++/v1/ostream:1001:19
	mov	rdi, rax
	mov	esi, 10
	call	__ZNKSt3__19basic_iosIcNS_11char_traitsIcEEE5widenEc
	mov	rdi, qword ptr [rbp - 16] ## 8-byte Reload
	.loc	57 1001 10              ## /Library/Developer/CommandLineTools/usr/bin/../include/c++/v1/ostream:1001:10
	movsx	esi, al
	call	__ZNSt3__113basic_ostreamIcNS_11char_traitsIcEEE3putEc
	.loc	57 1002 5 is_stmt 1     ## /Library/Developer/CommandLineTools/usr/bin/../include/c++/v1/ostream:1002:5
	mov	rdi, qword ptr [rbp - 8]
	mov	qword ptr [rbp - 24], rax ## 8-byte Spill
	.loc	57 1002 10 is_stmt 0    ## /Library/Developer/CommandLineTools/usr/bin/../include/c++/v1/ostream:1002:10
	call	__ZNSt3__113basic_ostreamIcNS_11char_traitsIcEEE5flushEv
	.loc	57 1003 12 is_stmt 1    ## /Library/Developer/CommandLineTools/usr/bin/../include/c++/v1/ostream:1003:12
	mov	rcx, qword ptr [rbp - 8]
	mov	qword ptr [rbp - 32], rax ## 8-byte Spill
	.loc	57 1003 5 is_stmt 0     ## /Library/Developer/CommandLineTools/usr/bin/../include/c++/v1/ostream:1003:5
	mov	rax, rcx
	add	rsp, 32
	pop	rbp
	ret
Ltmp6:
Lfunc_end2:
	.cfi_endproc
                                        ## -- End function
	.globl	__Z4Testv               ## -- Begin function _Z4Testv
	.p2align	4, 0x90
__Z4Testv:                              ## @_Z4Testv
Lfunc_begin3:
	.loc	1 43 0 is_stmt 1        ## 8.유의사항.cpp:43:0
	.cfi_startproc
## %bb.0:
	push	rbp
	.cfi_def_cfa_offset 16
	.cfi_offset rbp, -16
	mov	rbp, rsp
	.cfi_def_cfa_register rbp
Ltmp7:
	.loc	1 45 1 prologue_end     ## 8.유의사항.cpp:45:1
	pop	rbp
	ret
Ltmp8:
Lfunc_end3:
	.cfi_endproc
                                        ## -- End function
	.p2align	4, 0x90         ## -- Begin function _ZNKSt3__19basic_iosIcNS_11char_traitsIcEEE5widenEc
__ZNKSt3__19basic_iosIcNS_11char_traitsIcEEE5widenEc: ## @_ZNKSt3__19basic_iosIcNS_11char_traitsIcEEE5widenEc
Lfunc_begin4:
	.loc	2 776 0                 ## /Library/Developer/CommandLineTools/usr/bin/../include/c++/v1/ios:776:0
	.cfi_startproc
## %bb.0:
	push	rbp
	.cfi_def_cfa_offset 16
	.cfi_offset rbp, -16
	mov	rbp, rsp
	.cfi_def_cfa_register rbp
	sub	rsp, 32
                                        ## kill: def $sil killed $sil killed $esi
	mov	qword ptr [rbp - 8], rdi
	mov	byte ptr [rbp - 9], sil
	mov	rax, qword ptr [rbp - 8]
Ltmp9:
	.loc	2 777 41 prologue_end   ## /Library/Developer/CommandLineTools/usr/bin/../include/c++/v1/ios:777:41
	lea	rdi, [rbp - 24]
	mov	rsi, rax
	call	__ZNKSt3__18ios_base6getlocEv
	.loc	2 777 12 is_stmt 0      ## /Library/Developer/CommandLineTools/usr/bin/../include/c++/v1/ios:777:12
	lea	rdi, [rbp - 24]
	call	__ZNSt3__1L9use_facetINS_5ctypeIcEEEERKT_RKNS_6localeE
	.loc	2 777 51                ## /Library/Developer/CommandLineTools/usr/bin/../include/c++/v1/ios:777:51
	mov	rdi, rax
	movsx	esi, byte ptr [rbp - 9]
	call	__ZNKSt3__15ctypeIcE5widenEc
	.loc	2 777 5                 ## /Library/Developer/CommandLineTools/usr/bin/../include/c++/v1/ios:777:5
	lea	rdi, [rbp - 24]
	mov	byte ptr [rbp - 25], al ## 1-byte Spill
	call	__ZNSt3__16localeD1Ev
	mov	al, byte ptr [rbp - 25] ## 1-byte Reload
	movsx	eax, al
	add	rsp, 32
	pop	rbp
	ret
Ltmp10:
Lfunc_end4:
	.cfi_endproc
                                        ## -- End function
	.p2align	4, 0x90         ## -- Begin function _ZNSt3__1L9use_facetINS_5ctypeIcEEEERKT_RKNS_6localeE
__ZNSt3__1L9use_facetINS_5ctypeIcEEEERKT_RKNS_6localeE: ## @_ZNSt3__1L9use_facetINS_5ctypeIcEEEERKT_RKNS_6localeE
Lfunc_begin5:
	.loc	6 249 0 is_stmt 1       ## /Library/Developer/CommandLineTools/usr/bin/../include/c++/v1/__locale:249:0
	.cfi_startproc
## %bb.0:
	push	rbp
	.cfi_def_cfa_offset 16
	.cfi_offset rbp, -16
	mov	rbp, rsp
	.cfi_def_cfa_register rbp
	sub	rsp, 16
	mov	rsi, qword ptr [rip + __ZNSt3__15ctypeIcE2idE@GOTPCREL]
	mov	qword ptr [rbp - 8], rdi
Ltmp11:
	.loc	6 250 40 prologue_end   ## /Library/Developer/CommandLineTools/usr/bin/../include/c++/v1/__locale:250:40
	mov	rdi, qword ptr [rbp - 8]
	.loc	6 250 44 is_stmt 0      ## /Library/Developer/CommandLineTools/usr/bin/../include/c++/v1/__locale:250:44
	call	__ZNKSt3__16locale9use_facetERNS0_2idE
	.loc	6 250 5                 ## /Library/Developer/CommandLineTools/usr/bin/../include/c++/v1/__locale:250:5
	add	rsp, 16
	pop	rbp
	ret
Ltmp12:
Lfunc_end5:
	.cfi_endproc
                                        ## -- End function
	.p2align	4, 0x90         ## -- Begin function _ZNKSt3__15ctypeIcE5widenEc
__ZNKSt3__15ctypeIcE5widenEc:           ## @_ZNKSt3__15ctypeIcE5widenEc
Lfunc_begin6:
	.loc	6 680 0 is_stmt 1       ## /Library/Developer/CommandLineTools/usr/bin/../include/c++/v1/__locale:680:0
	.cfi_startproc
## %bb.0:
	push	rbp
	.cfi_def_cfa_offset 16
	.cfi_offset rbp, -16
	mov	rbp, rsp
	.cfi_def_cfa_register rbp
	sub	rsp, 16
                                        ## kill: def $sil killed $sil killed $esi
	mov	qword ptr [rbp - 8], rdi
	mov	byte ptr [rbp - 9], sil
	mov	rax, qword ptr [rbp - 8]
Ltmp13:
	.loc	6 681 25 prologue_end   ## /Library/Developer/CommandLineTools/usr/bin/../include/c++/v1/__locale:681:25
	mov	cl, byte ptr [rbp - 9]
	.loc	6 681 16 is_stmt 0      ## /Library/Developer/CommandLineTools/usr/bin/../include/c++/v1/__locale:681:16
	mov	rdx, qword ptr [rax]
	mov	rdi, rax
	movsx	esi, cl
	call	qword ptr [rdx + 56]
	.loc	6 681 9                 ## /Library/Developer/CommandLineTools/usr/bin/../include/c++/v1/__locale:681:9
	movsx	eax, al
	add	rsp, 16
	pop	rbp
	ret
Ltmp14:
Lfunc_end6:
	.cfi_endproc
                                        ## -- End function
	.section	__DATA,__data
	.globl	_hp                     ## @hp
	.p2align	2
_hp:
	.long	10                      ## 0xa
